; Function Attrs: nounwind uwtable
define dso_local range(i64 0, 2) i64 @tsquery_ne(ptr noundef readonly captures(none) %0) local_unnamed_addr #2 {
  %2 = getelementptr inbounds nuw i8, ptr %0, i64 32
  %3 = load i64, ptr %2, align 8
  %4 = inttoptr i64 %3 to ptr
  %5 = tail call ptr @pg_detoast_datum_copy(ptr noundef %4) #9
  %6 = getelementptr inbounds nuw i8, ptr %0, i64 48
  %7 = load i64, ptr %6, align 8
  %8 = inttoptr i64 %7 to ptr
  %9 = tail call ptr @pg_detoast_datum_copy(ptr noundef %8) #9
  %10 = getelementptr inbounds nuw i8, ptr %5, i64 4
  %11 = load i32, ptr %10, align 4
  %12 = getelementptr inbounds nuw i8, ptr %9, i64 4
  %13 = load i32, ptr %12, align 4
  %.not.i = icmp eq i32 %11, %13
  br i1 %.not.i, label %14, label %CompareTSQ.exit

14:                                               ; preds = %1
  %15 = load i32, ptr %5, align 4
  %16 = load i32, ptr %9, align 4
  %.not24.i.unshifted = xor i32 %16, %15
  %.not24.i = icmp ult i32 %.not24.i.unshifted, 4
  br i1 %.not24.i, label %17, label %CompareTSQ.exit

17:                                               ; preds = %14
  %.not25.i = icmp eq i32 %11, 0
  br i1 %.not25.i, label %CompareTSQ.exit, label %18

18:                                               ; preds = %17
  %19 = getelementptr inbounds nuw i8, ptr %5, i64 8
  %20 = sext i32 %11 to i64
  %21 = mul nsw i64 %20, 12
  %22 = getelementptr inbounds nuw i8, ptr %19, i64 %21
  %23 = tail call ptr @QT2QTN(ptr noundef nonnull %19, ptr noundef nonnull %22) #9
  %24 = getelementptr inbounds nuw i8, ptr %9, i64 8
  %25 = load i32, ptr %12, align 4
  %26 = sext i32 %25 to i64
  %27 = mul nsw i64 %26, 12
  %28 = getelementptr inbounds nuw i8, ptr %24, i64 %27
  %29 = tail call ptr @QT2QTN(ptr noundef nonnull %24, ptr noundef nonnull %28) #9
  %30 = tail call i32 @QTNodeCompare(ptr noundef %23, ptr noundef %29) #9
  tail call void @QTNFree(ptr noundef %23) #9
  tail call void @QTNFree(ptr noundef %29) #9
  %31 = icmp ne i32 %30, 0
  %32 = zext i1 %31 to i64
  br label %CompareTSQ.exit

CompareTSQ.exit:                                  ; preds = %14, %1, %17, %18
  %.0.i = phi i64 [ %32, %18 ], [ 0, %17 ], [ 1, %1 ], [ 1, %14 ]
  %33 = load i64, ptr %2, align 8
  %34 = inttoptr i64 %33 to ptr
  %.not = icmp eq ptr %5, %34
  br i1 %.not, label %36, label %35

35:                                               ; preds = %CompareTSQ.exit
  tail call void @pfree(ptr noundef nonnull %5) #9
  br label %36

36:                                               ; preds = %CompareTSQ.exit, %35
  %37 = load i64, ptr %6, align 8
  %38 = inttoptr i64 %37 to ptr
  %.not11 = icmp eq ptr %9, %38
  br i1 %.not11, label %40, label %39

39:                                               ; preds = %36
  tail call void @pfree(ptr noundef nonnull %9) #9
  br label %40

40:                                               ; preds = %39, %36
  ret i64 %.0.i
}